target datalayout = "e-m:e-p270:32:32-p271:32:32-p272:64:64-i64:64-i128:128-f80:128-n8:16:32:64-S128"
target triple = "x86_64-pc-linux-gnu"

%struct.redisServer = type { i32, i64, ptr, ptr, ptr, i32, i32, i32, i32, i32, ptr, ptr, ptr, ptr, ptr, i32, i32, i32, i32, i64, i32, i32, i32, i32, ptr, i32, i32, [41 x i8], i32, i64, i32, i32, i32, ptr, ptr, i32, i32, i64, ptr, ptr, ptr, ptr, [2 x i32], i32, i32, i32, i32, i32, i32, [16 x ptr], i32, ptr, ptr, i32, [8 x %struct.connListener], i32, %struct.connListener, ptr, ptr, ptr, ptr, ptr, ptr, ptr, ptr, ptr, ptr, i32, ptr, i32, ptr, [3 x %struct.pause_event], [256 x i8], ptr, i64, i32, i32, [128 x i32], i32, i32, i64, i32, i32, i32, i32, i32, i64, i64, i64, i64, i64, i64, i64, i64, i64, i64, double, i64, i64, i64, i64, i64, i64, i64, i64, i64, i64, i64, i64, i64, i64, i64, i64, i64, i64, i64, i64, i64, double, i64, i64, i64, i64, i64, ptr, i64, i64, i64, %struct.malloc_stats, i64, i64, i64, i64, i64, i64, i64, i64, i64, i64, i64, i64, double, [4 x i64], i64, i64, i64, i64, [128 x i64], [128 x i64], i64, i64, [7 x %struct.anon], i64, i64, i64, i64, i64, i64, [4 x %struct.durationStats], i32, i32, i32, i32, i32, i32, i32, i32, i32, i32, i32, i32, i64, i32, i32, i32, i32, i64, i64, i32, i32, i32, i32, i32, ptr, [3 x %struct.clientBufferLimitsConfig], i32, i32, i32, ptr, i32, i32, i32, i32, i32, i32, ptr, ptr, i32, i32, i64, i64, i64, i64, i64, i32, i32, ptr, i32, i32, i64, i64, i64, i64, i64, i32, i32, i64, i32, i32, i32, i32, i32, i32, i32, i32, ptr, i32, i64, i64, i64, i64, i32, ptr, i32, ptr, i32, i32, i32, i64, i64, i64, i64, i32, i32, i32, i32, i32, i32, ptr, i32, i32, ptr, i32, i32, i32, [2 x i32], i32, %struct.redisOpArray, i32, ptr, i32, ptr, i32, i32, i32, i32, i32, i32, i32, [41 x i8], [41 x i8], i64, i64, i64, i64, i32, i32, ptr, i64, i64, %struct.replDataBuf, i64, i64, i32, i32, i32, i32, i32, i32, i32, i32, i32, i64, ptr, i64, ptr, ptr, ptr, i32, i32, ptr, ptr, i32, i32, i32, i64, i64, i64, i64, ptr, ptr, i32, ptr, i64, i32, i32, i32, i64, i32, i32, i32, i32, ptr, i32, i32, [41 x i8], i64, i32, ptr, i32, i32, i64, i64, i32, i32, i32, i32, i32, i64, [3 x i32], i32, i32, i32, [10 x i32], ptr, ptr, i32, i64, ptr, ptr, i32, i32, i32, i32, i64, i64, i64, i64, i64, i64, i64, i64, i64, i64, i32, i32, i64, i64, i32, i64, i64, i64, i64, i64, ptr, ptr, i32, ptr, i32, i32, i32, i32, i64, i64, ptr, ptr, i32, i32, i32, i32, i32, ptr, ptr, ptr, i32, i32, i32, i32, i32, i32, i32, i64, i32, i32, i64, i32, i32, i32, i32, i32, i32, i32, i64, ptr, ptr, i64, ptr, i32, %struct.aclInfo, i32, i64, i32, i32, i32, %struct.redisTLSContextConfig, ptr, ptr, ptr, ptr, ptr, i64, i32, ptr, i32, i32, i32, i64, i32, ptr }
%struct.connListener = type { [16 x i32], i32, ptr, i32, i32, ptr, ptr }
%struct.pause_event = type { i32, i64 }
%struct.malloc_stats = type { i64, i64, i64, i64, i64, i64, i64, i64, i64, i64, i64 }
%struct.anon = type { i64, i64, [16 x i64], i32 }
%struct.durationStats = type { i64, i64, i64 }
%struct.clientBufferLimitsConfig = type { i64, i64, i64 }
%struct.redisOpArray = type { ptr, i32, i32 }
%struct.replDataBuf = type { ptr, i64, i64, i64, i64 }
%struct.aclInfo = type { i64, i64, i64, i64 }
%struct.redisTLSContextConfig = type { ptr, ptr, ptr, ptr, ptr, ptr, ptr, ptr, ptr, ptr, ptr, ptr, i32, i32, i32, i32 }
%struct.sentinelRedisInstance = type { i32, ptr, ptr, i64, ptr, ptr, i64, i64, i64, i64, i64, i64, i64, i64, i64, ptr, i32, i64, i64, ptr, ptr, i32, i32, ptr, ptr, i64, i32, i32, i64, ptr, ptr, i32, i32, i64, ptr, i64, i64, i32, i64, i64, i64, i64, ptr, ptr, ptr, ptr }

@server = external global %struct.redisServer, align 8
@.str.428 = private unnamed_addr constant [59 x i8] c"Next failover delay: I will not start a failover before %s\00", align 1

; Function Attrs: nounwind uwtable
define dso_local i32 @sentinelStartFailoverIfNeeded(ptr noundef %0) #0 {
  %2 = alloca i32, align 4
  %3 = alloca ptr, align 8
  %4 = alloca i64, align 8
  %5 = alloca [26 x i8], align 16
  store ptr %0, ptr %3, align 8, !tbaa !11
  %6 = load ptr, ptr %3, align 8, !tbaa !11
  %7 = getelementptr inbounds nuw %struct.sentinelRedisInstance, ptr %6, i32 0, i32 0
  %8 = load i32, ptr %7, align 8, !tbaa !34
  %9 = and i32 %8, 16
  %10 = icmp ne i32 %9, 0
  br i1 %10, label %12, label %11

11:                                               ; preds = %1
  store i32 0, ptr %2, align 4
  br label %67

12:                                               ; preds = %1
  %13 = load ptr, ptr %3, align 8, !tbaa !11
  %14 = getelementptr inbounds nuw %struct.sentinelRedisInstance, ptr %13, i32 0, i32 0
  %15 = load i32, ptr %14, align 8, !tbaa !34
  %16 = and i32 %15, 64
  %17 = icmp ne i32 %16, 0
  br i1 %17, label %18, label %19

18:                                               ; preds = %12
  store i32 0, ptr %2, align 4
  br label %67

19:                                               ; preds = %12
  %20 = call i64 @mstime()
  %21 = load ptr, ptr %3, align 8, !tbaa !11
  %22 = getelementptr inbounds nuw %struct.sentinelRedisInstance, ptr %21, i32 0, i32 39
  %23 = load i64, ptr %22, align 8, !tbaa !195
  %24 = sub nsw i64 %20, %23
  %25 = load ptr, ptr %3, align 8, !tbaa !11
  %26 = getelementptr inbounds nuw %struct.sentinelRedisInstance, ptr %25, i32 0, i32 40
  %27 = load i64, ptr %26, align 8, !tbaa !196
  %28 = mul nsw i64 %27, 2
  %29 = icmp slt i64 %24, %28
  br i1 %29, label %30, label %65

30:                                               ; preds = %19
  %31 = load ptr, ptr %3, align 8, !tbaa !11
  %32 = getelementptr inbounds nuw %struct.sentinelRedisInstance, ptr %31, i32 0, i32 41
  %33 = load i64, ptr %32, align 8, !tbaa !197
  %34 = load ptr, ptr %3, align 8, !tbaa !11
  %35 = getelementptr inbounds nuw %struct.sentinelRedisInstance, ptr %34, i32 0, i32 39
  %36 = load i64, ptr %35, align 8, !tbaa !195
  %37 = icmp ne i64 %33, %36
  br i1 %37, label %38, label %64

38:                                               ; preds = %30
  call void @llvm.lifetime.start.p0(i64 8, ptr %4) #16
  %39 = load ptr, ptr %3, align 8, !tbaa !11
  %40 = getelementptr inbounds nuw %struct.sentinelRedisInstance, ptr %39, i32 0, i32 39
  %41 = load i64, ptr %40, align 8, !tbaa !195
  %42 = load ptr, ptr %3, align 8, !tbaa !11
  %43 = getelementptr inbounds nuw %struct.sentinelRedisInstance, ptr %42, i32 0, i32 40
  %44 = load i64, ptr %43, align 8, !tbaa !196
  %45 = mul nsw i64 %44, 2
  %46 = add nsw i64 %41, %45
  %47 = sdiv i64 %46, 1000
  store i64 %47, ptr %4, align 8, !tbaa !205
  call void @llvm.lifetime.start.p0(i64 26, ptr %5) #16
  %48 = getelementptr inbounds [26 x i8], ptr %5, i64 0, i64 0
  %49 = call ptr @ctime_r(ptr noundef %4, ptr noundef %48) #16
  %50 = getelementptr inbounds [26 x i8], ptr %5, i64 0, i64 24
  store i8 0, ptr %50, align 8, !tbaa !83
  %51 = load ptr, ptr %3, align 8, !tbaa !11
  %52 = getelementptr inbounds nuw %struct.sentinelRedisInstance, ptr %51, i32 0, i32 39
  %53 = load i64, ptr %52, align 8, !tbaa !195
  %54 = load ptr, ptr %3, align 8, !tbaa !11
  %55 = getelementptr inbounds nuw %struct.sentinelRedisInstance, ptr %54, i32 0, i32 41
  store i64 %53, ptr %55, align 8, !tbaa !197
  br label %56

56:                                               ; preds = %38
  %57 = load i32, ptr getelementptr inbounds nuw (%struct.redisServer, ptr @server, i32 0, i32 159), align 8, !tbaa !81
  %58 = icmp slt i32 2, %57
  br i1 %58, label %59, label %60

59:                                               ; preds = %56
  br label %63

60:                                               ; preds = %56
  %61 = getelementptr inbounds [26 x i8], ptr %5, i64 0, i64 0
  call void (i32, ptr, ...) @_serverLog(i32 noundef 2, ptr noundef @.str.428, ptr noundef %61)
  br label %62

62:                                               ; preds = %60
  br label %63

63:                                               ; preds = %62, %59
  call void @llvm.lifetime.end.p0(i64 26, ptr %5) #16
  call void @llvm.lifetime.end.p0(i64 8, ptr %4) #16
  br label %64

64:                                               ; preds = %63, %30
  store i32 0, ptr %2, align 4
  br label %67

65:                                               ; preds = %19
  %66 = load ptr, ptr %3, align 8, !tbaa !11
  call void @sentinelStartFailover(ptr noundef %66)
  store i32 1, ptr %2, align 4
  br label %67

67:                                               ; preds = %65, %64, %18, %11
  %68 = load i32, ptr %2, align 4
  ret i32 %68
}