; Function Attrs: nounwind uwtable
define dso_local range(i32 0, 2) i32 @sentinelStartFailoverIfNeeded(ptr noundef captures(address_is_null) %0) local_unnamed_addr #0 {
  %2 = alloca i64, align 8
  %3 = alloca [26 x i8], align 16
  %4 = load i32, ptr %0, align 8, !tbaa !34
  %5 = and i32 %4, 80
  %or.cond = icmp eq i32 %5, 16
  br i1 %or.cond, label %6, label %29

6:                                                ; preds = %1
  %7 = tail call i64 @mstime() #30
  %8 = getelementptr inbounds nuw i8, ptr %0, i64 288
  %9 = load i64, ptr %8, align 8, !tbaa !277
  %10 = sub nsw i64 %7, %9
  %11 = getelementptr inbounds nuw i8, ptr %0, i64 296
  %12 = load i64, ptr %11, align 8, !tbaa !164
  %13 = shl nsw i64 %12, 1
  %14 = icmp slt i64 %10, %13
  br i1 %14, label %15, label %28

15:                                               ; preds = %6
  %16 = getelementptr inbounds nuw i8, ptr %0, i64 304
  %17 = load i64, ptr %16, align 8, !tbaa !291
  %.not12 = icmp eq i64 %17, %9
  br i1 %.not12, label %29, label %18

18:                                               ; preds = %15
  call void @llvm.lifetime.start.p0(i64 8, ptr nonnull %2) #30
  %19 = add nsw i64 %13, %9
  %20 = sdiv i64 %19, 1000
  store i64 %20, ptr %2, align 8, !tbaa !171
  call void @llvm.lifetime.start.p0(i64 26, ptr nonnull %3) #30
  %21 = call ptr @ctime_r(ptr noundef nonnull %2, ptr noundef nonnull %3) #30
  %22 = getelementptr inbounds nuw i8, ptr %3, i64 24
  store i8 0, ptr %22, align 8, !tbaa !79
  %23 = load i64, ptr %8, align 8, !tbaa !277
  store i64 %23, ptr %16, align 8, !tbaa !291
  %24 = load i32, ptr getelementptr inbounds nuw (i8, ptr @server, i64 6288), align 8, !tbaa !77
  %25 = icmp sgt i32 %24, 2
  br i1 %25, label %27, label %26

26:                                               ; preds = %18
  call void (i32, ptr, ...) @_serverLog(i32 noundef 2, ptr noundef nonnull @.str.428, ptr noundef nonnull %3) #30
  br label %27

27:                                               ; preds = %18, %26
  call void @llvm.lifetime.end.p0(i64 26, ptr nonnull %3) #30
  call void @llvm.lifetime.end.p0(i64 8, ptr nonnull %2) #30
  br label %29

28:                                               ; preds = %6
  tail call void @sentinelStartFailover(ptr noundef nonnull %0)
  br label %29

29:                                               ; preds = %15, %27, %1, %28
  %.0 = phi i32 [ 1, %28 ], [ 0, %1 ], [ 0, %27 ], [ 0, %15 ]
  ret i32 %.0
}